target datalayout = "e-m:e-p270:32:32-p271:32:32-p272:64:64-i64:64-i128:128-f80:128-n8:16:32:64-S128"
target triple = "x86_64-pc-linux-gnu"

%struct.nstime_t = type { i64, i32 }
%struct._packet_info = type { ptr, ptr, i32, i32, %struct.nstime_t, %struct.nstime_t, %struct.nstime_t, i8, ptr, ptr, ptr, ptr, %struct._address, %struct._address, %struct._address, %struct._address, %struct._address, %struct._address, i32, ptr, i8, [3 x i8], %struct.anon, i32, i32, i32, i32, ptr, i8, ptr, ptr, i16, i16, i32, i32, i16, i32, i32, ptr, ptr, ptr, i8, i8, i16, i16, i16, i32, i16, i16, ptr, ptr, ptr, ptr, ptr, i32, i32 }
%struct._address = type { i32, i32, ptr, ptr }
%struct.anon = type { i8, [3 x i8] }

@hf_pfcp_nokia_filter_override_type = internal global i32 0, align 4
@hf_pfcp_nokia_filter_override_name = internal global i32 0, align 4
@.str.2639 = private unnamed_addr constant [8 x i8] c"Unknown\00", align 1
@.str.2789 = private unnamed_addr constant [17 x i8] c" : %s: <disable>\00", align 1
@.str.2790 = private unnamed_addr constant [10 x i8] c" : %s: %s\00", align 1

; Function Attrs: null_pointer_is_valid sspstrong uwtable
define internal i32 @dissect_pfcp_nokia_filter_override(ptr noundef %0, ptr noundef %1, ptr noundef %2, ptr noundef %3) #0 {
  %5 = alloca ptr, align 8
  %6 = alloca ptr, align 8
  %7 = alloca ptr, align 8
  %8 = alloca ptr, align 8
  %9 = alloca i32, align 4
  store ptr %0, ptr %5, align 8
  store ptr %1, ptr %6, align 8
  store ptr %2, ptr %7, align 8
  store ptr %3, ptr %8, align 8
  call void @llvm.lifetime.start.p0(i64 4, ptr %9) #13
  %10 = load ptr, ptr %7, align 8
  %11 = load i32, ptr @hf_pfcp_nokia_filter_override_type, align 4
  %12 = load ptr, ptr %5, align 8
  %13 = call ptr @proto_tree_add_item_ret_uint(ptr noundef %10, i32 noundef %11, ptr noundef %12, i32 noundef 0, i32 noundef 1, i32 noundef 0, ptr noundef %9)
  %14 = load ptr, ptr %5, align 8
  %15 = call i32 @tvb_reported_length(ptr noundef %14)
  %16 = icmp eq i32 %15, 1
  br i1 %16, label %17, label %22

17:                                               ; preds = %4
  %18 = load ptr, ptr %7, align 8
  %19 = call ptr @proto_tree_get_parent(ptr noundef %18)
  %20 = load i32, ptr %9, align 4
  %21 = call ptr @val_to_str_const(i32 noundef %20, ptr noundef @nokia_filter_override_type_vals, ptr noundef @.str.2639)
  call void (ptr, ptr, ...) @proto_item_append_text(ptr noundef %19, ptr noundef @.str.2789, ptr noundef %21)
  br label %42

22:                                               ; preds = %4
  %23 = load ptr, ptr %7, align 8
  %24 = load i32, ptr @hf_pfcp_nokia_filter_override_name, align 4
  %25 = load ptr, ptr %5, align 8
  %26 = load ptr, ptr %5, align 8
  %27 = call i32 @tvb_reported_length(ptr noundef %26)
  %28 = sub i32 %27, 1
  %29 = call ptr @proto_tree_add_item(ptr noundef %23, i32 noundef %24, ptr noundef %25, i32 noundef 1, i32 noundef %28, i32 noundef 0)
  %30 = load ptr, ptr %7, align 8
  %31 = call ptr @proto_tree_get_parent(ptr noundef %30)
  %32 = load i32, ptr %9, align 4
  %33 = call ptr @val_to_str_const(i32 noundef %32, ptr noundef @nokia_filter_override_type_vals, ptr noundef @.str.2639)
  %34 = load ptr, ptr %6, align 8
  %35 = getelementptr inbounds nuw %struct._packet_info, ptr %34, i32 0, i32 51
  %36 = load ptr, ptr %35, align 8
  %37 = load ptr, ptr %5, align 8
  %38 = load ptr, ptr %5, align 8
  %39 = call i32 @tvb_reported_length(ptr noundef %38)
  %40 = sub i32 %39, 1
  %41 = call ptr @tvb_get_string_enc(ptr noundef %36, ptr noundef %37, i32 noundef 1, i32 noundef %40, i32 noundef 0)
  call void (ptr, ptr, ...) @proto_item_append_text(ptr noundef %31, ptr noundef @.str.2790, ptr noundef %33, ptr noundef %41)
  br label %42

42:                                               ; preds = %22, %17
  %43 = load ptr, ptr %5, align 8
  %44 = call i32 @tvb_reported_length(ptr noundef %43)
  call void @llvm.lifetime.end.p0(i64 4, ptr %9) #13
  ret i32 %44
}