; Function Attrs: null_pointer_is_valid sspstrong uwtable
define internal i32 @dissect_pfcp_nokia_filter_override(ptr noundef %0, ptr noundef readonly captures(none) %1, ptr noundef %2, ptr readnone captures(none) %3) #0 {
  %5 = alloca i32, align 4
  call void @llvm.lifetime.start.p0(i64 4, ptr nonnull %5) #15
  %6 = load i32, ptr @hf_pfcp_nokia_filter_override_type, align 4
  %7 = call ptr @proto_tree_add_item_ret_uint(ptr noundef %2, i32 noundef %6, ptr noundef %0, i32 noundef 0, i32 noundef 1, i32 noundef 0, ptr noundef nonnull %5)
  %8 = call i32 @tvb_reported_length(ptr noundef %0)
  %9 = icmp eq i32 %8, 1
  br i1 %9, label %10, label %14

10:                                               ; preds = %4
  %11 = call ptr @proto_tree_get_parent(ptr noundef %2)
  %12 = load i32, ptr %5, align 4
  %13 = call ptr @val_to_str_const(i32 noundef %12, ptr noundef nonnull @nokia_filter_override_type_vals, ptr noundef nonnull @.str.2639)
  call void (ptr, ptr, ...) @proto_item_append_text(ptr noundef %11, ptr noundef nonnull @.str.2789, ptr noundef %13)
  br label %27

14:                                               ; preds = %4
  %15 = load i32, ptr @hf_pfcp_nokia_filter_override_name, align 4
  %16 = call i32 @tvb_reported_length(ptr noundef %0)
  %17 = add i32 %16, -1
  %18 = call ptr @proto_tree_add_item(ptr noundef %2, i32 noundef %15, ptr noundef %0, i32 noundef 1, i32 noundef %17, i32 noundef 0)
  %19 = call ptr @proto_tree_get_parent(ptr noundef %2)
  %20 = load i32, ptr %5, align 4
  %21 = call ptr @val_to_str_const(i32 noundef %20, ptr noundef nonnull @nokia_filter_override_type_vals, ptr noundef nonnull @.str.2639)
  %22 = getelementptr inbounds nuw i8, ptr %1, i64 408
  %23 = load ptr, ptr %22, align 8
  %24 = call i32 @tvb_reported_length(ptr noundef %0)
  %25 = add i32 %24, -1
  %26 = call ptr @tvb_get_string_enc(ptr noundef %23, ptr noundef %0, i32 noundef 1, i32 noundef %25, i32 noundef 0)
  call void (ptr, ptr, ...) @proto_item_append_text(ptr noundef %19, ptr noundef nonnull @.str.2790, ptr noundef %21, ptr noundef %26)
  br label %27

27:                                               ; preds = %14, %10
  %28 = call i32 @tvb_reported_length(ptr noundef %0)
  call void @llvm.lifetime.end.p0(i64 4, ptr nonnull %5) #15
  ret i32 %28
}